; Function Attrs: mustprogress uwtable
define noundef i32 @_ZN2mu6Parser5IsValEPKcPiPd(ptr noundef %0, ptr nocapture noundef %1, ptr nocapture noundef writeonly %2) #1 align 2 personality ptr @__gxx_personality_v0 {
  %4 = alloca double, align 8
  %5 = alloca %"class.std::__cxx11::basic_stringstream", align 8
  %6 = alloca %"class.std::__cxx11::basic_string", align 8
  %7 = alloca %"class.std::allocator", align 1
  %8 = alloca %"class.std::locale", align 8
  store double 0.000000e+00, ptr %4, align 8
  call void @_ZNSaIcEC1Ev(ptr noundef nonnull align 1 dereferenceable(1) %7) #12
  invoke void @_ZNSt7__cxx1112basic_stringIcSt11char_traitsIcESaIcEEC1EPKcRKS3_(ptr noundef nonnull align 8 dereferenceable(32) %6, ptr noundef %0, ptr noundef nonnull align 1 dereferenceable(1) %7)
          to label %9 unwind label %24

9:                                                ; preds = %3
  invoke void @_ZNSt7__cxx1118basic_stringstreamIcSt11char_traitsIcESaIcEEC1ERKNS_12basic_stringIcS2_S3_EESt13_Ios_Openmode(ptr noundef nonnull align 8 dereferenceable(128) %5, ptr noundef nonnull align 8 dereferenceable(32) %6, i32 noundef 24)
          to label %10 unwind label %26

10:                                               ; preds = %9
  call void @_ZNSt7__cxx1112basic_stringIcSt11char_traitsIcESaIcEED1Ev(ptr noundef nonnull align 8 dereferenceable(32) %6) #12
  call void @_ZNSaIcED1Ev(ptr noundef nonnull align 1 dereferenceable(1) %7) #12
  %11 = invoke noundef nonnull align 8 dereferenceable(16) ptr @_ZNSi5seekgESt4fposI11__mbstate_tE(ptr noundef nonnull align 8 dereferenceable(16) %5, i64 0, i64 0)
          to label %12 unwind label %29

12:                                               ; preds = %10
  %13 = load ptr, ptr %5, align 8
  %14 = getelementptr i8, ptr %13, i64 -24
  %15 = load i64, ptr %14, align 8
  %16 = getelementptr inbounds i8, ptr %5, i64 %15
  invoke void @_ZNSt9basic_iosIcSt11char_traitsIcEE5imbueERKSt6locale(ptr dead_on_unwind nonnull writable sret(%"class.std::locale") align 8 %8, ptr noundef nonnull align 8 dereferenceable(264) %16, ptr noundef nonnull align 8 dereferenceable(8) @_ZN2mu10ParserBase8s_localeE)
          to label %17 unwind label %29

17:                                               ; preds = %12
  call void @_ZNSt6localeD1Ev(ptr noundef nonnull align 8 dereferenceable(8) %8) #12
  %18 = invoke noundef nonnull align 8 dereferenceable(16) ptr @_ZNSirsERd(ptr noundef nonnull align 8 dereferenceable(16) %5, ptr noundef nonnull align 8 dereferenceable(8) %4)
          to label %19 unwind label %29

19:                                               ; preds = %17
  %20 = invoke { i64, i64 } @_ZNSi5tellgEv(ptr noundef nonnull align 8 dereferenceable(16) %5)
          to label %21 unwind label %29

21:                                               ; preds = %19
  %22 = extractvalue { i64, i64 } %20, 0
  %23 = icmp eq i64 %22, -1
  br i1 %23, label %36, label %31

24:                                               ; preds = %3
  %25 = landingpad { ptr, i32 }
          cleanup
  br label %28

26:                                               ; preds = %9
  %27 = landingpad { ptr, i32 }
          cleanup
  call void @_ZNSt7__cxx1112basic_stringIcSt11char_traitsIcESaIcEED1Ev(ptr noundef nonnull align 8 dereferenceable(32) %6) #12
  br label %28

28:                                               ; preds = %26, %24
  %.pn = phi { ptr, i32 } [ %27, %26 ], [ %25, %24 ]
  call void @_ZNSaIcED1Ev(ptr noundef nonnull align 1 dereferenceable(1) %7) #12
  br label %37

29:                                               ; preds = %19, %17, %12, %10
  %30 = landingpad { ptr, i32 }
          cleanup
  call void @_ZNSt7__cxx1118basic_stringstreamIcSt11char_traitsIcESaIcEED1Ev(ptr noundef nonnull align 8 dereferenceable(128) %5) #12
  br label %37

31:                                               ; preds = %21
  %32 = trunc i64 %22 to i32
  %33 = load i32, ptr %1, align 4
  %34 = add nsw i32 %33, %32
  store i32 %34, ptr %1, align 4
  %35 = load double, ptr %4, align 8
  store double %35, ptr %2, align 8
  br label %36

36:                                               ; preds = %21, %31
  %.07 = phi i32 [ 1, %31 ], [ 0, %21 ]
  call void @_ZNSt7__cxx1118basic_stringstreamIcSt11char_traitsIcESaIcEED1Ev(ptr noundef nonnull align 8 dereferenceable(128) %5) #12
  ret i32 %.07

37:                                               ; preds = %29, %28
  %.pn9 = phi { ptr, i32 } [ %30, %29 ], [ %.pn, %28 ]
  resume { ptr, i32 } %.pn9
}